#include <math.h>
#include <stdio.h>
#include <stdlib.h>
#include <string.h>
#include <iostream>
using namespace std;

char c[1000];
int i=0;
int main( )
{
	cin>>c[0];
	cout<<c[0];
	while(c[i]!='\n')
	{
		i++;
		c[i]=cin.get( );
		
	}

	
	i=1;
	while(c[i]!='\n')
	{
		
		
		if(c[i]==' ')
			{   ++i;
				continue;
		    }
		if(c[i]!='\0'&&c[i-1]!=' ') cout<<c[i];
		if(c[i]!='\0'&&c[i-1]==' ') cout<<" "<<c[i];
	    i++;
	}
	
	return 0;
}

